target datalayout = "e-m:e-p270:32:32-p271:32:32-p272:64:64-i64:64-i128:128-f80:128-n8:16:32:64-S128"
target triple = "x86_64-pc-linux-gnu"

%struct.optstruct = type { ptr, ptr, ptr, i64, i32, i32, i32, i32, ptr, ptr, ptr }

@.str.24 = private unnamed_addr constant [7 x i8] c"unpack\00", align 1
@.str.25 = private unnamed_addr constant [15 x i8] c"unpack-current\00", align 1
@.str.134 = private unnamed_addr constant [2 x i8] c".\00", align 1
@.str.158 = private unnamed_addr constant [8 x i8] c"datadir\00", align 1
@.str.179 = private unnamed_addr constant [10 x i8] c"%s/%s.cvd\00", align 1
@.str.180 = private unnamed_addr constant [10 x i8] c"%s/%s.cld\00", align 1
@.str.286 = private unnamed_addr constant [49 x i8] c"unpack: Couldn't find %s CLD/CVD database in %s\0A\00", align 1
@.str.287 = private unnamed_addr constant [31 x i8] c"unpack: %s is not a valid CVD\0A\00", align 1
@.str.288 = private unnamed_addr constant [30 x i8] c"unpack: Can't unpack file %s\0A\00", align 1

; Function Attrs: nounwind uwtable
define internal i32 @unpack(ptr noundef %0) #0 {
  %2 = alloca i32, align 4
  %3 = alloca ptr, align 8
  %4 = alloca [512 x i8], align 16
  %5 = alloca ptr, align 8
  %6 = alloca ptr, align 8
  store ptr %0, ptr %3, align 8
  store ptr null, ptr %6, align 8
  %7 = load ptr, ptr %3, align 8
  %8 = call ptr @optget(ptr noundef %7, ptr noundef @.str.158)
  %9 = getelementptr inbounds %struct.optstruct, ptr %8, i32 0, i32 5
  %10 = load i32, ptr %9, align 4
  %11 = icmp ne i32 %10, 0
  br i1 %11, label %12, label %17

12:                                               ; preds = %1
  %13 = load ptr, ptr %3, align 8
  %14 = call ptr @optget(ptr noundef %13, ptr noundef @.str.158)
  %15 = getelementptr inbounds %struct.optstruct, ptr %14, i32 0, i32 2
  %16 = load ptr, ptr %15, align 8
  store ptr %16, ptr %6, align 8
  br label %17

17:                                               ; preds = %12, %1
  %18 = load ptr, ptr %3, align 8
  %19 = call ptr @optget(ptr noundef %18, ptr noundef @.str.25)
  %20 = getelementptr inbounds %struct.optstruct, ptr %19, i32 0, i32 4
  %21 = load i32, ptr %20, align 8
  %22 = icmp ne i32 %21, 0
  br i1 %22, label %23, label %77

23:                                               ; preds = %17
  %24 = call ptr @freshdbdir()
  store ptr %24, ptr %5, align 8
  %25 = getelementptr inbounds [512 x i8], ptr %4, i64 0, i64 0
  %26 = load ptr, ptr %6, align 8
  %27 = icmp ne ptr %26, null
  br i1 %27, label %28, label %30

28:                                               ; preds = %23
  %29 = load ptr, ptr %6, align 8
  br label %32

30:                                               ; preds = %23
  %31 = load ptr, ptr %5, align 8
  br label %32

32:                                               ; preds = %30, %28
  %33 = phi ptr [ %29, %28 ], [ %31, %30 ]
  %34 = load ptr, ptr %3, align 8
  %35 = call ptr @optget(ptr noundef %34, ptr noundef @.str.25)
  %36 = getelementptr inbounds %struct.optstruct, ptr %35, i32 0, i32 2
  %37 = load ptr, ptr %36, align 8
  %38 = call i32 (ptr, i64, ptr, ...) @snprintf(ptr noundef %25, i64 noundef 512, ptr noundef @.str.179, ptr noundef %33, ptr noundef %37) #11
  %39 = getelementptr inbounds [512 x i8], ptr %4, i64 0, i64 0
  %40 = call i32 @access(ptr noundef %39, i32 noundef 4) #11
  %41 = icmp ne i32 %40, 0
  br i1 %41, label %42, label %75

42:                                               ; preds = %32
  %43 = getelementptr inbounds [512 x i8], ptr %4, i64 0, i64 0
  %44 = load ptr, ptr %6, align 8
  %45 = icmp ne ptr %44, null
  br i1 %45, label %46, label %48

46:                                               ; preds = %42
  %47 = load ptr, ptr %6, align 8
  br label %50

48:                                               ; preds = %42
  %49 = load ptr, ptr %5, align 8
  br label %50

50:                                               ; preds = %48, %46
  %51 = phi ptr [ %47, %46 ], [ %49, %48 ]
  %52 = load ptr, ptr %3, align 8
  %53 = call ptr @optget(ptr noundef %52, ptr noundef @.str.25)
  %54 = getelementptr inbounds %struct.optstruct, ptr %53, i32 0, i32 2
  %55 = load ptr, ptr %54, align 8
  %56 = call i32 (ptr, i64, ptr, ...) @snprintf(ptr noundef %43, i64 noundef 512, ptr noundef @.str.180, ptr noundef %51, ptr noundef %55) #11
  %57 = getelementptr inbounds [512 x i8], ptr %4, i64 0, i64 0
  %58 = call i32 @access(ptr noundef %57, i32 noundef 4) #11
  %59 = icmp ne i32 %58, 0
  br i1 %59, label %60, label %74

60:                                               ; preds = %50
  %61 = load ptr, ptr %3, align 8
  %62 = call ptr @optget(ptr noundef %61, ptr noundef @.str.25)
  %63 = getelementptr inbounds %struct.optstruct, ptr %62, i32 0, i32 2
  %64 = load ptr, ptr %63, align 8
  %65 = load ptr, ptr %6, align 8
  %66 = icmp ne ptr %65, null
  br i1 %66, label %67, label %69

67:                                               ; preds = %60
  %68 = load ptr, ptr %6, align 8
  br label %71

69:                                               ; preds = %60
  %70 = load ptr, ptr %5, align 8
  br label %71

71:                                               ; preds = %69, %67
  %72 = phi ptr [ %68, %67 ], [ %70, %69 ]
  call void (i32, ptr, ...) @mprintf(i32 noundef 5, ptr noundef @.str.286, ptr noundef %64, ptr noundef %72)
  %73 = load ptr, ptr %5, align 8
  call void @free(ptr noundef %73) #11
  store i32 -1, ptr %2, align 4
  br label %98

74:                                               ; preds = %50
  br label %75

75:                                               ; preds = %74, %32
  %76 = load ptr, ptr %5, align 8
  call void @free(ptr noundef %76) #11
  br label %85

77:                                               ; preds = %17
  %78 = getelementptr inbounds [512 x i8], ptr %4, i64 0, i64 0
  %79 = load ptr, ptr %3, align 8
  %80 = call ptr @optget(ptr noundef %79, ptr noundef @.str.24)
  %81 = getelementptr inbounds %struct.optstruct, ptr %80, i32 0, i32 2
  %82 = load ptr, ptr %81, align 8
  %83 = call ptr @strncpy(ptr noundef %78, ptr noundef %82, i64 noundef 512) #11
  %84 = getelementptr inbounds [512 x i8], ptr %4, i64 0, i64 511
  store i8 0, ptr %84, align 1
  br label %85

85:                                               ; preds = %77, %75
  %86 = getelementptr inbounds [512 x i8], ptr %4, i64 0, i64 0
  %87 = call i32 @cl_cvdverify(ptr noundef %86)
  %88 = icmp ne i32 %87, 0
  br i1 %88, label %89, label %91

89:                                               ; preds = %85
  %90 = getelementptr inbounds [512 x i8], ptr %4, i64 0, i64 0
  call void (i32, ptr, ...) @mprintf(i32 noundef 5, ptr noundef @.str.287, ptr noundef %90)
  store i32 -1, ptr %2, align 4
  br label %98

91:                                               ; preds = %85
  %92 = getelementptr inbounds [512 x i8], ptr %4, i64 0, i64 0
  %93 = call i32 @cl_cvdunpack(ptr noundef %92, ptr noundef @.str.134, i1 noundef zeroext true)
  %94 = icmp ne i32 0, %93
  br i1 %94, label %95, label %97

95:                                               ; preds = %91
  %96 = getelementptr inbounds [512 x i8], ptr %4, i64 0, i64 0
  call void (i32, ptr, ...) @mprintf(i32 noundef 5, ptr noundef @.str.288, ptr noundef %96)
  store i32 -1, ptr %2, align 4
  br label %98

97:                                               ; preds = %91
  store i32 0, ptr %2, align 4
  br label %98

98:                                               ; preds = %97, %95, %89, %71
  %99 = load i32, ptr %2, align 4
  ret i32 %99
}