; Function Attrs: nounwind uwtable
define internal fastcc noundef i32 @unpack(ptr noundef %0) unnamed_addr #0 {
  %2 = alloca [512 x i8], align 16
  %3 = tail call ptr @optget(ptr noundef %0, ptr noundef nonnull @.str.158) #25
  %4 = getelementptr inbounds i8, ptr %3, i64 36
  %5 = load i32, ptr %4, align 4
  %.not = icmp eq i32 %5, 0
  br i1 %.not, label %10, label %6

6:                                                ; preds = %1
  %7 = tail call ptr @optget(ptr noundef %0, ptr noundef nonnull @.str.158) #25
  %8 = getelementptr inbounds i8, ptr %7, i64 16
  %9 = load ptr, ptr %8, align 8
  br label %10

10:                                               ; preds = %6, %1
  %.0 = phi ptr [ %9, %6 ], [ null, %1 ]
  %11 = tail call ptr @optget(ptr noundef %0, ptr noundef nonnull @.str.25) #25
  %12 = getelementptr inbounds i8, ptr %11, i64 32
  %13 = load i32, ptr %12, align 8
  %.not19 = icmp eq i32 %13, 0
  br i1 %.not19, label %33, label %14

14:                                               ; preds = %10
  %15 = tail call ptr @freshdbdir() #25
  %.not20 = icmp eq ptr %.0, null
  %16 = select i1 %.not20, ptr %15, ptr %.0
  %17 = tail call ptr @optget(ptr noundef %0, ptr noundef nonnull @.str.25) #25
  %18 = getelementptr inbounds i8, ptr %17, i64 16
  %19 = load ptr, ptr %18, align 8
  %20 = call i32 (ptr, i64, ptr, ...) @snprintf(ptr noundef nonnull dereferenceable(1) %2, i64 noundef 512, ptr noundef nonnull @.str.179, ptr noundef %16, ptr noundef %19) #25
  %21 = call i32 @access(ptr noundef nonnull %2, i32 noundef 4) #25
  %.not21 = icmp eq i32 %21, 0
  br i1 %.not21, label %32, label %22

22:                                               ; preds = %14
  %23 = tail call ptr @optget(ptr noundef %0, ptr noundef nonnull @.str.25) #25
  %24 = getelementptr inbounds i8, ptr %23, i64 16
  %25 = load ptr, ptr %24, align 8
  %26 = call i32 (ptr, i64, ptr, ...) @snprintf(ptr noundef nonnull dereferenceable(1) %2, i64 noundef 512, ptr noundef nonnull @.str.180, ptr noundef %16, ptr noundef %25) #25
  %27 = call i32 @access(ptr noundef nonnull %2, i32 noundef 4) #25
  %.not22 = icmp eq i32 %27, 0
  br i1 %.not22, label %32, label %28

28:                                               ; preds = %22
  %29 = tail call ptr @optget(ptr noundef %0, ptr noundef nonnull @.str.25) #25
  %30 = getelementptr inbounds i8, ptr %29, i64 16
  %31 = load ptr, ptr %30, align 8
  tail call void (i32, ptr, ...) @mprintf(i32 noundef 5, ptr noundef nonnull @.str.286, ptr noundef %31, ptr noundef %16) #25
  tail call void @free(ptr noundef %15) #25
  br label %45

32:                                               ; preds = %22, %14
  tail call void @free(ptr noundef %15) #25
  br label %39

33:                                               ; preds = %10
  %34 = tail call ptr @optget(ptr noundef %0, ptr noundef nonnull @.str.24) #25
  %35 = getelementptr inbounds i8, ptr %34, i64 16
  %36 = load ptr, ptr %35, align 8
  %37 = call ptr @strncpy(ptr noundef nonnull dereferenceable(1) %2, ptr noundef nonnull dereferenceable(1) %36, i64 noundef 512) #25
  %38 = getelementptr inbounds i8, ptr %2, i64 511
  store i8 0, ptr %38, align 1
  br label %39

39:                                               ; preds = %33, %32
  %40 = call i32 @cl_cvdverify(ptr noundef nonnull %2) #25
  %.not23 = icmp eq i32 %40, 0
  br i1 %.not23, label %42, label %41

41:                                               ; preds = %39
  call void (i32, ptr, ...) @mprintf(i32 noundef 5, ptr noundef nonnull @.str.287, ptr noundef nonnull %2) #25
  br label %45

42:                                               ; preds = %39
  %43 = call i32 @cl_cvdunpack(ptr noundef nonnull %2, ptr noundef nonnull @.str.134, i1 noundef zeroext true) #25
  %.not24 = icmp eq i32 %43, 0
  br i1 %.not24, label %45, label %44

44:                                               ; preds = %42
  call void (i32, ptr, ...) @mprintf(i32 noundef 5, ptr noundef nonnull @.str.288, ptr noundef nonnull %2) #25
  br label %45

45:                                               ; preds = %42, %44, %41, %28
  %.018 = phi i32 [ -1, %28 ], [ -1, %41 ], [ -1, %44 ], [ 0, %42 ]
  ret i32 %.018
}